; Function Attrs: mustprogress uwtable
define void @_ZN8QuantLib13TermStructureC2ENS_10DayCounterE(ptr noundef nonnull align 8 dereferenceable(64) %this, ptr nocapture noundef readonly %vtt, ptr nocapture noundef %dc) unnamed_addr #3 align 2 personality ptr @__gxx_personality_v0 {
entry:
  store ptr getelementptr inbounds inrange(-16, 16) (i8, ptr @_ZTVN8QuantLib12ExtrapolatorE, i64 16), ptr %this, align 8, !tbaa !3
  %extrapolate_.i = getelementptr inbounds nuw i8, ptr %this, i64 8
  store i8 0, ptr %extrapolate_.i, align 8, !tbaa !6
  %0 = load ptr, ptr %vtt, align 8
  store ptr %0, ptr %this, align 8, !tbaa !3
  %1 = getelementptr inbounds i8, ptr %vtt, i64 8
  %2 = load ptr, ptr %1, align 8
  %vbase.offset.ptr = getelementptr i8, ptr %0, i64 -24
  %vbase.offset = load i64, ptr %vbase.offset.ptr, align 8
  %add.ptr = getelementptr inbounds i8, ptr %this, i64 %vbase.offset
  store ptr %2, ptr %add.ptr, align 8, !tbaa !3
  %3 = getelementptr inbounds i8, ptr %vtt, i64 16
  %4 = load ptr, ptr %3, align 8
  %vtable3 = load ptr, ptr %this, align 8, !tbaa !3
  %vbase.offset.ptr4 = getelementptr i8, ptr %vtable3, i64 -32
  %vbase.offset5 = load i64, ptr %vbase.offset.ptr4, align 8
  %add.ptr6 = getelementptr inbounds i8, ptr %this, i64 %vbase.offset5
  store ptr %4, ptr %add.ptr6, align 8, !tbaa !3
  %moving_ = getelementptr inbounds nuw i8, ptr %this, i64 9
  store i8 0, ptr %moving_, align 1, !tbaa !10
  %updated_ = getelementptr inbounds nuw i8, ptr %this, i64 10
  store i8 1, ptr %updated_, align 2, !tbaa !21
  %calendar_ = getelementptr inbounds nuw i8, ptr %this, i64 16
  tail call void @llvm.memset.p0.i64(ptr noundef nonnull align 8 dereferenceable(16) %calendar_, i8 0, i64 16, i1 false)
  %referenceDate_ = getelementptr inbounds nuw i8, ptr %this, i64 32
  invoke void @_ZN8QuantLib4DateC1Ev(ptr noundef nonnull align 8 dereferenceable(8) %referenceDate_)
          to label %invoke.cont8 unwind label %lpad

invoke.cont8:                                     ; preds = %entry
  %settlementDays_ = getelementptr inbounds nuw i8, ptr %this, i64 40
  store i32 2147483647, ptr %settlementDays_, align 8, !tbaa !22
  %dayCounter_ = getelementptr inbounds nuw i8, ptr %this, i64 48
  %5 = load ptr, ptr %dc, align 8, !tbaa !23
  store ptr %5, ptr %dayCounter_, align 8, !tbaa !23
  %pn.i.i = getelementptr inbounds nuw i8, ptr %this, i64 56
  %pn3.i.i = getelementptr inbounds nuw i8, ptr %dc, i64 8
  %6 = load ptr, ptr %pn3.i.i, align 8, !tbaa !24
  store ptr %6, ptr %pn.i.i, align 8, !tbaa !24
  tail call void @llvm.memset.p0.i64(ptr noundef nonnull align 8 dereferenceable(16) %dc, i8 0, i64 16, i1 false)
  ret void

lpad:                                             ; preds = %entry
  %7 = landingpad { ptr, i32 }
          cleanup
  tail call void @_ZN8QuantLib8CalendarD2Ev(ptr noundef nonnull align 8 dereferenceable(16) %calendar_) #22
  resume { ptr, i32 } %7
}